; Function Attrs: nofree noinline norecurse nosync nounwind memory(argmem: readwrite) uwtable
define internal fastcc void @put_8tap_1d_v_c(ptr noundef writeonly captures(none) %0, i64 noundef %1, ptr noundef readonly captures(none) %2, i64 noundef %3, i32 noundef range(i32 4, 65) %4, i32 noundef %5, ptr noundef readonly captures(none) %6) unnamed_addr #9 {
  %8 = mul nsw i64 %3, -3
  %9 = getelementptr inbounds nuw i8, ptr %6, i64 2
  %10 = shl i64 %3, 1
  %11 = getelementptr inbounds nuw i8, ptr %6, i64 4
  %12 = getelementptr inbounds nuw i8, ptr %6, i64 6
  %13 = getelementptr inbounds nuw i8, ptr %6, i64 8
  %14 = getelementptr inbounds nuw i8, ptr %6, i64 10
  %15 = getelementptr inbounds nuw i8, ptr %6, i64 12
  %16 = mul nsw i64 %3, 3
  %17 = getelementptr inbounds nuw i8, ptr %6, i64 14
  %18 = shl nsw i64 %3, 2
  %wide.trip.count = zext nneg i32 %4 to i64
  br label %19

19:                                               ; preds = %88, %7
  %.084.i = phi i32 [ %5, %7 ], [ %90, %88 ]
  %.083.i = phi ptr [ %0, %7 ], [ %89, %88 ]
  %.082.i = phi ptr [ %2, %7 ], [ %21, %88 ]
  %20 = getelementptr i8, ptr %.082.i, i64 %8
  %21 = getelementptr i8, ptr %.082.i, i64 %3
  %22 = getelementptr i8, ptr %.082.i, i64 %10
  %23 = getelementptr i8, ptr %.082.i, i64 %16
  %24 = getelementptr i8, ptr %.082.i, i64 %18
  br label %25

25:                                               ; preds = %19, %25
  %indvars.iv = phi i64 [ 0, %19 ], [ %indvars.iv.next, %25 ]
  %26 = load i16, ptr %6, align 2, !tbaa !80
  %27 = sext i16 %26 to i32
  %28 = getelementptr i8, ptr %20, i64 %indvars.iv
  %29 = load i8, ptr %28, align 1, !tbaa !8
  %30 = zext i8 %29 to i32
  %31 = mul nsw i32 %30, %27
  %32 = load i16, ptr %9, align 2, !tbaa !80
  %33 = sext i16 %32 to i32
  %34 = sub i64 %indvars.iv, %10
  %35 = getelementptr inbounds i8, ptr %.082.i, i64 %34
  %36 = load i8, ptr %35, align 1, !tbaa !8
  %37 = zext i8 %36 to i32
  %38 = mul nsw i32 %37, %33
  %39 = load i16, ptr %11, align 2, !tbaa !80
  %40 = sext i16 %39 to i32
  %41 = sub nsw i64 %indvars.iv, %3
  %42 = getelementptr inbounds i8, ptr %.082.i, i64 %41
  %43 = load i8, ptr %42, align 1, !tbaa !8
  %44 = zext i8 %43 to i32
  %45 = mul nsw i32 %44, %40
  %46 = load i16, ptr %12, align 2, !tbaa !80
  %47 = sext i16 %46 to i32
  %48 = getelementptr inbounds nuw i8, ptr %.082.i, i64 %indvars.iv
  %49 = load i8, ptr %48, align 1, !tbaa !8
  %50 = zext i8 %49 to i32
  %51 = mul nsw i32 %50, %47
  %52 = load i16, ptr %13, align 2, !tbaa !80
  %53 = sext i16 %52 to i32
  %54 = getelementptr i8, ptr %21, i64 %indvars.iv
  %55 = load i8, ptr %54, align 1, !tbaa !8
  %56 = zext i8 %55 to i32
  %57 = mul nsw i32 %56, %53
  %58 = load i16, ptr %14, align 2, !tbaa !80
  %59 = sext i16 %58 to i32
  %60 = getelementptr i8, ptr %22, i64 %indvars.iv
  %61 = load i8, ptr %60, align 1, !tbaa !8
  %62 = zext i8 %61 to i32
  %63 = mul nsw i32 %62, %59
  %64 = load i16, ptr %15, align 2, !tbaa !80
  %65 = sext i16 %64 to i32
  %66 = getelementptr i8, ptr %23, i64 %indvars.iv
  %67 = load i8, ptr %66, align 1, !tbaa !8
  %68 = zext i8 %67 to i32
  %69 = mul nsw i32 %68, %65
  %70 = load i16, ptr %17, align 2, !tbaa !80
  %71 = sext i16 %70 to i32
  %72 = getelementptr i8, ptr %24, i64 %indvars.iv
  %73 = load i8, ptr %72, align 1, !tbaa !8
  %74 = zext i8 %73 to i32
  %75 = mul nsw i32 %74, %71
  %76 = add nsw i32 %31, 64
  %77 = add nsw i32 %76, %38
  %78 = add nsw i32 %77, %45
  %79 = add nsw i32 %78, %51
  %80 = add nsw i32 %79, %57
  %81 = add nsw i32 %80, %63
  %82 = add nsw i32 %81, %69
  %83 = add nsw i32 %82, %75
  %84 = ashr i32 %83, 7
  %.not.i.i = icmp ult i32 %84, 256
  %isnotneg.i.i = icmp sgt i32 %84, -1
  %85 = sext i1 %isnotneg.i.i to i8
  %86 = trunc nuw i32 %84 to i8
  %.0.i.i = select i1 %.not.i.i, i8 %86, i8 %85
  %87 = getelementptr inbounds nuw i8, ptr %.083.i, i64 %indvars.iv
  store i8 %.0.i.i, ptr %87, align 1, !tbaa !8
  %indvars.iv.next = add nuw nsw i64 %indvars.iv, 1
  %exitcond.not = icmp eq i64 %indvars.iv.next, %wide.trip.count
  br i1 %exitcond.not, label %88, label %25, !llvm.loop !189

88:                                               ; preds = %25
  %89 = getelementptr inbounds i8, ptr %.083.i, i64 %1
  %90 = add nsw i32 %.084.i, -1
  %.not.i = icmp eq i32 %90, 0
  br i1 %.not.i, label %do_8tap_1d_c.exit, label %19, !llvm.loop !190

do_8tap_1d_c.exit:                                ; preds = %88
  ret void
}